; ModuleID = '61/1440.c'
source_filename = "61/1440.c"
target datalayout = "e-m:e-p270:32:32-p271:32:32-p272:64:64-i64:64-f80:128-n8:16:32:64-S128"
target triple = "x86_64-pc-linux-gnu"

@.str = private unnamed_addr constant [3 x i8] c"%d\00", align 1
@.str.1 = private unnamed_addr constant [3 x i8] c"1\0A\00", align 1
@.str.2 = private unnamed_addr constant [4 x i8] c"%d\0A\00", align 1

; Function Attrs: noinline nounwind uwtable
define dso_local i32 @main() #0 {
  %1 = alloca i32, align 4
  %2 = alloca i32, align 4
  %3 = alloca i32, align 4
  %4 = alloca i32, align 4
  %5 = alloca i32, align 4
  %6 = alloca [10000 x i32], align 16
  store i32 0, i32* %1, align 4
  %7 = call i32 (i8*, ...) @__isoc99_scanf(i8* getelementptr inbounds ([3 x i8], [3 x i8]* @.str, i64 0, i64 0), i32* %4)
  store i32 0, i32* %3, align 4
  br label %8

8:                                                ; preds = %65, %0
  %9 = load i32, i32* %3, align 4
  %10 = load i32, i32* %4, align 4
  %11 = icmp slt i32 %9, %10
  br i1 %11, label %12, label %68

12:                                               ; preds = %8
  %13 = call i32 (i8*, ...) @__isoc99_scanf(i8* getelementptr inbounds ([3 x i8], [3 x i8]* @.str, i64 0, i64 0), i32* %5)
  %14 = getelementptr inbounds [10000 x i32], [10000 x i32]* %6, i64 0, i64 0
  store i32 0, i32* %14, align 16
  %15 = getelementptr inbounds [10000 x i32], [10000 x i32]* %6, i64 0, i64 1
  store i32 1, i32* %15, align 4
  %16 = load i32, i32* %5, align 4
  %17 = icmp eq i32 %16, 1
  br i1 %17, label %18, label %20

18:                                               ; preds = %12
  %19 = call i32 (i8*, ...) @printf(i8* getelementptr inbounds ([3 x i8], [3 x i8]* @.str.1, i64 0, i64 0))
  br label %20

20:                                               ; preds = %18, %12
  %21 = load i32, i32* %5, align 4
  %22 = icmp sge i32 %21, 2
  br i1 %22, label %23, label %64

23:                                               ; preds = %20
  store i32 2, i32* %2, align 4
  br label %24

24:                                               ; preds = %43, %23
  %25 = load i32, i32* %2, align 4
  %26 = load i32, i32* %5, align 4
  %27 = icmp sle i32 %25, %26
  br i1 %27, label %28, label %46

28:                                               ; preds = %24
  %29 = load i32, i32* %2, align 4
  %30 = sub nsw i32 %29, 1
  %31 = sext i32 %30 to i64
  %32 = getelementptr inbounds [10000 x i32], [10000 x i32]* %6, i64 0, i64 %31
  %33 = load i32, i32* %32, align 4
  %34 = load i32, i32* %2, align 4
  %35 = sub nsw i32 %34, 2
  %36 = sext i32 %35 to i64
  %37 = getelementptr inbounds [10000 x i32], [10000 x i32]* %6, i64 0, i64 %36
  %38 = load i32, i32* %37, align 4
  %39 = add nsw i32 %33, %38
  %40 = load i32, i32* %2, align 4
  %41 = sext i32 %40 to i64
  %42 = getelementptr inbounds [10000 x i32], [10000 x i32]* %6, i64 0, i64 %41
  store i32 %39, i32* %42, align 4
  br label %43

43:                                               ; preds = %28
  %44 = load i32, i32* %2, align 4
  %45 = add nsw i32 %44, 1
  store i32 %45, i32* %2, align 4
  br label %24

46:                                               ; preds = %24
  %47 = load i32, i32* %5, align 4
  %48 = sext i32 %47 to i64
  %49 = getelementptr inbounds [10000 x i32], [10000 x i32]* %6, i64 0, i64 %48
  %50 = load i32, i32* %49, align 4
  %51 = call i32 (i8*, ...) @printf(i8* getelementptr inbounds ([4 x i8], [4 x i8]* @.str.2, i64 0, i64 0), i32 %50)
  store i32 2, i32* %2, align 4
  br label %52

52:                                               ; preds = %60, %46
  %53 = load i32, i32* %2, align 4
  %54 = load i32, i32* %5, align 4
  %55 = icmp sle i32 %53, %54
  br i1 %55, label %56, label %63

56:                                               ; preds = %52
  %57 = load i32, i32* %2, align 4
  %58 = sext i32 %57 to i64
  %59 = getelementptr inbounds [10000 x i32], [10000 x i32]* %6, i64 0, i64 %58
  store i32 0, i32* %59, align 4
  br label %60

60:                                               ; preds = %56
  %61 = load i32, i32* %2, align 4
  %62 = add nsw i32 %61, 1
  store i32 %62, i32* %2, align 4
  br label %52

63:                                               ; preds = %52
  br label %64

64:                                               ; preds = %63, %20
  br label %65

65:                                               ; preds = %64
  %66 = load i32, i32* %3, align 4
  %67 = add nsw i32 %66, 1
  store i32 %67, i32* %3, align 4
  br label %8

68:                                               ; preds = %8
  ret i32 0
}

declare dso_local i32 @__isoc99_scanf(i8*, ...) #1

declare dso_local i32 @printf(i8*, ...) #1


!llvm.module.flags = !{!0}
!llvm.ident = !{!1}

!0 = !{i32 1, !"wchar_size", i32 4}
!1 = !{!"clang version 10.0.0-4ubuntu1 "}
